target datalayout = "e-m:e-p270:32:32-p271:32:32-p272:64:64-i64:64-i128:128-f80:128-n8:16:32:64-S128"
target triple = "x86_64-pc-linux-gnu"

%struct.rb_ractor_queue = type { ptr, i32, i32, i32, i32, i32 }
%struct.rb_ractor_basket = type { %union.anon.13, i64, %union.anon.14 }
%union.anon.13 = type { i32 }
%union.anon.14 = type { %struct.anon.15 }
%struct.anon.15 = type { i64, i8 }

; Function Attrs: nounwind sspstrong uwtable
define internal void @ASSERT_ractor_locking(ptr noundef %0) #0 {
  %2 = alloca ptr, align 8
  store ptr %0, ptr %2, align 8, !tbaa !7
  ret void
}

; Function Attrs: nounwind sspstrong uwtable
define internal void @ractor_queue_enq(ptr noundef %0, ptr noundef %1, ptr noundef %2) #0 {
  %4 = alloca ptr, align 8
  %5 = alloca ptr, align 8
  %6 = alloca ptr, align 8
  %7 = alloca i32, align 4
  store ptr %0, ptr %4, align 8, !tbaa !7
  store ptr %1, ptr %5, align 8, !tbaa !93
  store ptr %2, ptr %6, align 8, !tbaa !105
  %8 = load ptr, ptr %4, align 8, !tbaa !7
  call void @ASSERT_ractor_locking(ptr noundef %8)
  %9 = load ptr, ptr %5, align 8, !tbaa !93
  %10 = getelementptr inbounds nuw %struct.rb_ractor_queue, ptr %9, i32 0, i32 3
  %11 = load i32, ptr %10, align 8, !tbaa !221
  %12 = load ptr, ptr %5, align 8, !tbaa !93
  %13 = getelementptr inbounds nuw %struct.rb_ractor_queue, ptr %12, i32 0, i32 2
  %14 = load i32, ptr %13, align 4, !tbaa !192
  %15 = icmp sle i32 %11, %14
  br i1 %15, label %16, label %76

16:                                               ; preds = %3
  %17 = load ptr, ptr %5, align 8, !tbaa !93
  %18 = getelementptr inbounds nuw %struct.rb_ractor_queue, ptr %17, i32 0, i32 0
  %19 = load ptr, ptr %18, align 8, !tbaa !219
  %20 = load ptr, ptr %5, align 8, !tbaa !93
  %21 = getelementptr inbounds nuw %struct.rb_ractor_queue, ptr %20, i32 0, i32 3
  %22 = load i32, ptr %21, align 8, !tbaa !221
  %23 = sext i32 %22 to i64
  %24 = mul i64 32, %23
  %25 = mul i64 %24, 2
  %26 = call ptr @realloc(ptr noundef %19, i64 noundef %25) #36
  %27 = load ptr, ptr %5, align 8, !tbaa !93
  %28 = getelementptr inbounds nuw %struct.rb_ractor_queue, ptr %27, i32 0, i32 0
  store ptr %26, ptr %28, align 8, !tbaa !219
  call void @llvm.lifetime.start.p0(i64 4, ptr %7) #16
  %29 = load ptr, ptr %5, align 8, !tbaa !93
  %30 = getelementptr inbounds nuw %struct.rb_ractor_queue, ptr %29, i32 0, i32 3
  %31 = load i32, ptr %30, align 8, !tbaa !221
  %32 = load ptr, ptr %5, align 8, !tbaa !93
  %33 = getelementptr inbounds nuw %struct.rb_ractor_queue, ptr %32, i32 0, i32 1
  %34 = load i32, ptr %33, align 8, !tbaa !220
  %35 = sub i32 %31, %34
  store i32 %35, ptr %7, align 4, !tbaa !14
  br label %36

36:                                               ; preds = %68, %16
  %37 = load i32, ptr %7, align 4, !tbaa !14
  %38 = load ptr, ptr %5, align 8, !tbaa !93
  %39 = getelementptr inbounds nuw %struct.rb_ractor_queue, ptr %38, i32 0, i32 2
  %40 = load i32, ptr %39, align 4, !tbaa !192
  %41 = icmp slt i32 %37, %40
  br i1 %41, label %43, label %42

42:                                               ; preds = %36
  call void @llvm.lifetime.end.p0(i64 4, ptr %7) #16
  br label %71

43:                                               ; preds = %36
  %44 = load ptr, ptr %5, align 8, !tbaa !93
  %45 = getelementptr inbounds nuw %struct.rb_ractor_queue, ptr %44, i32 0, i32 0
  %46 = load ptr, ptr %45, align 8, !tbaa !219
  %47 = load i32, ptr %7, align 4, !tbaa !14
  %48 = load ptr, ptr %5, align 8, !tbaa !93
  %49 = getelementptr inbounds nuw %struct.rb_ractor_queue, ptr %48, i32 0, i32 1
  %50 = load i32, ptr %49, align 8, !tbaa !220
  %51 = add i32 %47, %50
  %52 = sext i32 %51 to i64
  %53 = getelementptr %struct.rb_ractor_basket, ptr %46, i64 %52
  %54 = load ptr, ptr %5, align 8, !tbaa !93
  %55 = getelementptr inbounds nuw %struct.rb_ractor_queue, ptr %54, i32 0, i32 0
  %56 = load ptr, ptr %55, align 8, !tbaa !219
  %57 = load i32, ptr %7, align 4, !tbaa !14
  %58 = load ptr, ptr %5, align 8, !tbaa !93
  %59 = getelementptr inbounds nuw %struct.rb_ractor_queue, ptr %58, i32 0, i32 1
  %60 = load i32, ptr %59, align 8, !tbaa !220
  %61 = add i32 %57, %60
  %62 = load ptr, ptr %5, align 8, !tbaa !93
  %63 = getelementptr inbounds nuw %struct.rb_ractor_queue, ptr %62, i32 0, i32 3
  %64 = load i32, ptr %63, align 8, !tbaa !221
  %65 = sub i32 %61, %64
  %66 = sext i32 %65 to i64
  %67 = getelementptr %struct.rb_ractor_basket, ptr %56, i64 %66
  call void @llvm.memcpy.p0.p0.i64(ptr align 8 %53, ptr align 8 %67, i64 32, i1 false), !tbaa.struct !145
  br label %68

68:                                               ; preds = %43
  %69 = load i32, ptr %7, align 4, !tbaa !14
  %70 = add i32 %69, 1
  store i32 %70, ptr %7, align 4, !tbaa !14
  br label %36, !llvm.loop !234

71:                                               ; preds = %42
  %72 = load ptr, ptr %5, align 8, !tbaa !93
  %73 = getelementptr inbounds nuw %struct.rb_ractor_queue, ptr %72, i32 0, i32 3
  %74 = load i32, ptr %73, align 8, !tbaa !221
  %75 = mul i32 %74, 2
  store i32 %75, ptr %73, align 8, !tbaa !221
  br label %76

76:                                               ; preds = %71, %3
  %77 = load ptr, ptr %5, align 8, !tbaa !93
  %78 = getelementptr inbounds nuw %struct.rb_ractor_queue, ptr %77, i32 0, i32 0
  %79 = load ptr, ptr %78, align 8, !tbaa !219
  %80 = load ptr, ptr %5, align 8, !tbaa !93
  %81 = getelementptr inbounds nuw %struct.rb_ractor_queue, ptr %80, i32 0, i32 1
  %82 = load i32, ptr %81, align 8, !tbaa !220
  %83 = load ptr, ptr %5, align 8, !tbaa !93
  %84 = getelementptr inbounds nuw %struct.rb_ractor_queue, ptr %83, i32 0, i32 2
  %85 = load i32, ptr %84, align 4, !tbaa !192
  %86 = add i32 %85, 1
  store i32 %86, ptr %84, align 4, !tbaa !192
  %87 = add i32 %82, %85
  %88 = load ptr, ptr %5, align 8, !tbaa !93
  %89 = getelementptr inbounds nuw %struct.rb_ractor_queue, ptr %88, i32 0, i32 3
  %90 = load i32, ptr %89, align 8, !tbaa !221
  %91 = srem i32 %87, %90
  %92 = sext i32 %91 to i64
  %93 = getelementptr %struct.rb_ractor_basket, ptr %79, i64 %92
  %94 = load ptr, ptr %6, align 8, !tbaa !105
  call void @llvm.memcpy.p0.p0.i64(ptr align 8 %93, ptr align 8 %94, i64 32, i1 false), !tbaa.struct !145
  ret void
}