; Function Attrs: nounwind sspstrong uwtable
define internal fastcc void @ractor_queue_enq(ptr noundef captures(none) %0, ptr noundef nonnull readonly captures(none) %1) unnamed_addr #0 {
  %3 = getelementptr inbounds nuw i8, ptr %0, i64 16
  %4 = load i32, ptr %3, align 8, !tbaa !85
  %5 = getelementptr inbounds nuw i8, ptr %0, i64 12
  %6 = load i32, ptr %5, align 4, !tbaa !86
  %.not = icmp sgt i32 %4, %6
  %.pre3 = load ptr, ptr %0, align 8, !tbaa !88
  br i1 %.not, label %32, label %7

7:                                                ; preds = %2
  %8 = sext i32 %4 to i64
  %9 = shl nsw i64 %8, 6
  %10 = tail call ptr @realloc(ptr noundef %.pre3, i64 noundef %9) #36
  store ptr %10, ptr %0, align 8, !tbaa !88
  %11 = load i32, ptr %3, align 8, !tbaa !85
  %12 = getelementptr inbounds nuw i8, ptr %0, i64 8
  %13 = load i32, ptr %12, align 8, !tbaa !87
  %14 = sub i32 %11, %13
  %15 = load i32, ptr %5, align 4, !tbaa !86
  %16 = icmp slt i32 %14, %15
  br i1 %16, label %.lr.ph, label %._crit_edge

._crit_edge.loopexit:                             ; preds = %.lr.ph
  %.pre = load i32, ptr %3, align 8, !tbaa !85
  %.pre2.pre = load ptr, ptr %0, align 8, !tbaa !88
  br label %._crit_edge

._crit_edge:                                      ; preds = %._crit_edge.loopexit, %7
  %.pre2 = phi ptr [ %.pre2.pre, %._crit_edge.loopexit ], [ %10, %7 ]
  %17 = phi i32 [ %30, %._crit_edge.loopexit ], [ %15, %7 ]
  %18 = phi i32 [ %.pre, %._crit_edge.loopexit ], [ %11, %7 ]
  %19 = shl i32 %18, 1
  store i32 %19, ptr %3, align 8, !tbaa !85
  br label %32

.lr.ph:                                           ; preds = %7, %.lr.ph
  %.01 = phi i32 [ %29, %.lr.ph ], [ %14, %7 ]
  %20 = load ptr, ptr %0, align 8, !tbaa !88
  %21 = load i32, ptr %12, align 8, !tbaa !87
  %22 = add i32 %21, %.01
  %23 = sext i32 %22 to i64
  %24 = getelementptr %struct.rb_ractor_basket, ptr %20, i64 %23
  %25 = load i32, ptr %3, align 8, !tbaa !85
  %26 = sub i32 %22, %25
  %27 = sext i32 %26 to i64
  %28 = getelementptr %struct.rb_ractor_basket, ptr %20, i64 %27
  tail call void @llvm.memcpy.p0.p0.i64(ptr noundef nonnull align 8 dereferenceable(32) %24, ptr noundef nonnull align 8 dereferenceable(32) %28, i64 32, i1 false), !tbaa.struct !120
  %29 = add nsw i32 %.01, 1
  %30 = load i32, ptr %5, align 4, !tbaa !86
  %31 = icmp slt i32 %29, %30
  br i1 %31, label %.lr.ph, label %._crit_edge.loopexit, !llvm.loop !121

32:                                               ; preds = %._crit_edge, %2
  %33 = phi i32 [ %19, %._crit_edge ], [ %4, %2 ]
  %34 = phi i32 [ %17, %._crit_edge ], [ %6, %2 ]
  %35 = phi ptr [ %.pre2, %._crit_edge ], [ %.pre3, %2 ]
  %36 = getelementptr inbounds nuw i8, ptr %0, i64 8
  %37 = load i32, ptr %36, align 8, !tbaa !87
  %38 = add i32 %34, 1
  store i32 %38, ptr %5, align 4, !tbaa !86
  %39 = add i32 %34, %37
  %40 = srem i32 %39, %33
  %41 = sext i32 %40 to i64
  %42 = getelementptr %struct.rb_ractor_basket, ptr %35, i64 %41
  tail call void @llvm.memcpy.p0.p0.i64(ptr noundef nonnull align 8 dereferenceable(32) %42, ptr noundef nonnull align 8 dereferenceable(32) %1, i64 32, i1 false), !tbaa.struct !120
  ret void
}